target datalayout = "e-m:e-p270:32:32-p271:32:32-p272:64:64-i64:64-i128:128-f80:128-n8:16:32:64-S128"
target triple = "x86_64-pc-linux-gnu"

%struct.FunctionCallInfoBaseData = type { ptr, ptr, ptr, i32, i8, i16, [0 x %struct.NullableDatum] }
%struct.NullableDatum = type { i64, i8 }
%struct.BackupState = type { [1025 x i8], i64, i32, i64, i64, i8, i64, i32, i64, i32, i64 }
%struct.StringInfoData = type { ptr, i32, i32, i32 }
%struct.HeapTupleData = type { i32, %struct.ItemPointerData, i32, ptr }
%struct.ItemPointerData = type { %struct.BlockIdData, i16 }
%struct.BlockIdData = type { i16, i16 }

@.str.1 = private unnamed_addr constant [12 x i8] c"xlogfuncs.c\00", align 1
@backupcontext = internal global ptr null, align 8
@backup_state = internal global ptr null, align 8
@tablespace_map = internal global ptr null, align 8
@.str.3 = private unnamed_addr constant [31 x i8] c"return type must be a row type\00", align 1
@__func__.pg_backup_stop = private unnamed_addr constant [15 x i8] c"pg_backup_stop\00", align 1
@.str.4 = private unnamed_addr constant [26 x i8] c"backup is not in progress\00", align 1
@.str.5 = private unnamed_addr constant [32 x i8] c"Did you call pg_backup_start()?\00", align 1

; Function Attrs: inlinehint nounwind uwtable
define internal i64 @Int64GetDatum(i64 noundef %0) #3 {
  %2 = alloca i64, align 8
  store i64 %0, ptr %2, align 8
  %3 = load i64, ptr %2, align 8
  ret i64 %3
}

; Function Attrs: inlinehint nounwind uwtable
define internal i64 @HeapTupleGetDatum(ptr noundef %0) #3 {
  %2 = alloca ptr, align 8
  store ptr %0, ptr %2, align 8
  %3 = load ptr, ptr %2, align 8
  %4 = getelementptr inbounds nuw %struct.HeapTupleData, ptr %3, i32 0, i32 3
  %5 = load ptr, ptr %4, align 8
  %6 = call i64 @HeapTupleHeaderGetDatum(ptr noundef %5)
  ret i64 %6
}

; Function Attrs: inlinehint nounwind uwtable
define internal i64 @PointerGetDatum(ptr noundef %0) #3 {
  %2 = alloca ptr, align 8
  store ptr %0, ptr %2, align 8
  %3 = load ptr, ptr %2, align 8
  %4 = ptrtoint ptr %3 to i64
  ret i64 %4
}

; Function Attrs: inlinehint nounwind uwtable
define internal i64 @LSNGetDatum(i64 noundef %0) #3 {
  %2 = alloca i64, align 8
  store i64 %0, ptr %2, align 8
  %3 = load i64, ptr %2, align 8
  %4 = call i64 @Int64GetDatum(i64 noundef %3)
  ret i64 %4
}

; Function Attrs: inlinehint nounwind uwtable
define internal zeroext i1 @DatumGetBool(i64 noundef %0) #3 {
  %2 = alloca i64, align 8
  store i64 %0, ptr %2, align 8
  %3 = load i64, ptr %2, align 8
  %4 = icmp ne i64 %3, 0
  ret i1 %4
}

; Function Attrs: nounwind uwtable
define dso_local i64 @pg_backup_stop(ptr noundef %0) #0 {
  %2 = alloca ptr, align 8
  %3 = alloca ptr, align 8
  %4 = alloca [3 x i64], align 16
  %5 = alloca [3 x i8], align 1
  %6 = alloca i8, align 1
  %7 = alloca ptr, align 8
  %8 = alloca i32, align 4
  store ptr %0, ptr %2, align 8
  call void @llvm.lifetime.start.p0(i64 8, ptr %3) #9
  call void @llvm.lifetime.start.p0(i64 24, ptr %4) #9
  call void @llvm.memset.p0.i64(ptr align 16 %4, i8 0, i64 24, i1 false)
  call void @llvm.lifetime.start.p0(i64 3, ptr %5) #9
  call void @llvm.memset.p0.i64(ptr align 1 %5, i8 0, i64 3, i1 false)
  call void @llvm.lifetime.start.p0(i64 1, ptr %6) #9
  %9 = load ptr, ptr %2, align 8
  %10 = getelementptr inbounds nuw %struct.FunctionCallInfoBaseData, ptr %9, i32 0, i32 6
  %11 = getelementptr inbounds [0 x %struct.NullableDatum], ptr %10, i64 0, i64 0
  %12 = getelementptr inbounds nuw %struct.NullableDatum, ptr %11, i32 0, i32 0
  %13 = load i64, ptr %12, align 8
  %14 = call zeroext i1 @DatumGetBool(i64 noundef %13)
  %15 = zext i1 %14 to i8
  store i8 %15, ptr %6, align 1
  call void @llvm.lifetime.start.p0(i64 8, ptr %7) #9
  call void @llvm.lifetime.start.p0(i64 4, ptr %8) #9
  %16 = call i32 @get_backup_status()
  store i32 %16, ptr %8, align 4
  %17 = load ptr, ptr %2, align 8
  %18 = call i32 @get_call_result_type(ptr noundef %17, ptr noundef null, ptr noundef %3)
  %19 = icmp ne i32 %18, 1
  br i1 %19, label %20, label %31

20:                                               ; preds = %1
  br label %21

21:                                               ; preds = %20
  br i1 true, label %22, label %24

22:                                               ; preds = %21
  %23 = call zeroext i1 @errstart_cold(i32 noundef 21, ptr noundef null) #10
  br i1 %23, label %26, label %28

24:                                               ; preds = %21
  %25 = call zeroext i1 @errstart(i32 noundef 21, ptr noundef null)
  br i1 %25, label %26, label %28

26:                                               ; preds = %24, %22
  %27 = call i32 (ptr, ...) @errmsg_internal(ptr noundef @.str.3)
  call void @errfinish(ptr noundef @.str.1, i32 noundef 136, ptr noundef @__func__.pg_backup_stop)
  br label %28

28:                                               ; preds = %26, %24, %22
  unreachable

29:                                               ; No predecessors!
  br label %30

30:                                               ; preds = %29
  br label %31

31:                                               ; preds = %30, %1
  %32 = load i32, ptr %8, align 4
  %33 = icmp ne i32 %32, 1
  br i1 %33, label %34, label %47

34:                                               ; preds = %31
  br label %35

35:                                               ; preds = %34
  br i1 true, label %36, label %38

36:                                               ; preds = %35
  %37 = call zeroext i1 @errstart_cold(i32 noundef 21, ptr noundef null) #10
  br i1 %37, label %40, label %44

38:                                               ; preds = %35
  %39 = call zeroext i1 @errstart(i32 noundef 21, ptr noundef null)
  br i1 %39, label %40, label %44

40:                                               ; preds = %38, %36
  %41 = call i32 @errcode(i32 noundef 325)
  %42 = call i32 (ptr, ...) @errmsg(ptr noundef @.str.4)
  %43 = call i32 (ptr, ...) @errhint(ptr noundef @.str.5)
  call void @errfinish(ptr noundef @.str.1, i32 noundef 142, ptr noundef @__func__.pg_backup_stop)
  br label %44

44:                                               ; preds = %40, %38, %36
  unreachable

45:                                               ; No predecessors!
  br label %46

46:                                               ; preds = %45
  br label %47

47:                                               ; preds = %46, %31
  %48 = load ptr, ptr @backup_state, align 8
  %49 = load i8, ptr %6, align 1, !range !4, !noundef !5
  %50 = trunc i8 %49 to i1
  call void @do_pg_backup_stop(ptr noundef %48, i1 noundef zeroext %50)
  %51 = load ptr, ptr @backup_state, align 8
  %52 = call ptr @build_backup_content(ptr noundef %51, i1 noundef zeroext false)
  store ptr %52, ptr %7, align 8
  %53 = load ptr, ptr @backup_state, align 8
  %54 = getelementptr inbounds nuw %struct.BackupState, ptr %53, i32 0, i32 8
  %55 = load i64, ptr %54, align 8
  %56 = call i64 @LSNGetDatum(i64 noundef %55)
  %57 = getelementptr inbounds [3 x i64], ptr %4, i64 0, i64 0
  store i64 %56, ptr %57, align 16
  %58 = load ptr, ptr %7, align 8
  %59 = call ptr @cstring_to_text(ptr noundef %58)
  %60 = call i64 @PointerGetDatum(ptr noundef %59)
  %61 = getelementptr inbounds [3 x i64], ptr %4, i64 0, i64 1
  store i64 %60, ptr %61, align 8
  %62 = load ptr, ptr @tablespace_map, align 8
  %63 = getelementptr inbounds nuw %struct.StringInfoData, ptr %62, i32 0, i32 0
  %64 = load ptr, ptr %63, align 8
  %65 = call ptr @cstring_to_text(ptr noundef %64)
  %66 = call i64 @PointerGetDatum(ptr noundef %65)
  %67 = getelementptr inbounds [3 x i64], ptr %4, i64 0, i64 2
  store i64 %66, ptr %67, align 16
  %68 = load ptr, ptr %7, align 8
  call void @pfree(ptr noundef %68)
  store ptr null, ptr @backup_state, align 8
  store ptr null, ptr @tablespace_map, align 8
  %69 = load ptr, ptr @backupcontext, align 8
  call void @MemoryContextDelete(ptr noundef %69)
  store ptr null, ptr @backupcontext, align 8
  %70 = load ptr, ptr %3, align 8
  %71 = getelementptr inbounds [3 x i64], ptr %4, i64 0, i64 0
  %72 = getelementptr inbounds [3 x i8], ptr %5, i64 0, i64 0
  %73 = call ptr @heap_form_tuple(ptr noundef %70, ptr noundef %71, ptr noundef %72)
  %74 = call i64 @HeapTupleGetDatum(ptr noundef %73)
  call void @llvm.lifetime.end.p0(i64 4, ptr %8) #9
  call void @llvm.lifetime.end.p0(i64 8, ptr %7) #9
  call void @llvm.lifetime.end.p0(i64 1, ptr %6) #9
  call void @llvm.lifetime.end.p0(i64 3, ptr %5) #9
  call void @llvm.lifetime.end.p0(i64 24, ptr %4) #9
  call void @llvm.lifetime.end.p0(i64 8, ptr %3) #9
  ret i64 %74
}