; Function Attrs: nounwind uwtable
define dso_local i64 @pg_backup_stop(ptr noundef %0) local_unnamed_addr #0 {
  %2 = alloca ptr, align 8
  %3 = alloca [3 x i64], align 16
  %4 = alloca [3 x i8], align 1
  call void @llvm.lifetime.start.p0(i64 8, ptr nonnull %2) #9
  call void @llvm.lifetime.start.p0(i64 24, ptr nonnull %3) #9
  call void @llvm.lifetime.start.p0(i64 3, ptr nonnull %4) #9
  call void @llvm.memset.p0.i64(ptr noundef nonnull align 1 dereferenceable(3) %4, i8 0, i64 3, i1 false)
  %5 = getelementptr inbounds nuw i8, ptr %0, i64 32
  %6 = load i64, ptr %5, align 8
  %7 = tail call i32 @get_backup_status() #9
  %8 = call i32 @get_call_result_type(ptr noundef %0, ptr noundef null, ptr noundef nonnull %2) #9
  %.not = icmp eq i32 %8, 1
  br i1 %.not, label %12, label %9

9:                                                ; preds = %1
  %10 = call zeroext i1 @errstart_cold(i32 noundef 21, ptr noundef null) #10
  call void @llvm.assume(i1 %10)
  %11 = call i32 (ptr, ...) @errmsg_internal(ptr noundef nonnull @.str.3) #9
  call void @errfinish(ptr noundef nonnull @.str.1, i32 noundef 136, ptr noundef nonnull @__func__.pg_backup_stop) #9
  unreachable

12:                                               ; preds = %1
  %.not5 = icmp eq i32 %7, 1
  br i1 %.not5, label %18, label %13

13:                                               ; preds = %12
  %14 = call zeroext i1 @errstart_cold(i32 noundef 21, ptr noundef null) #10
  call void @llvm.assume(i1 %14)
  %15 = call i32 @errcode(i32 noundef 325) #9
  %16 = call i32 (ptr, ...) @errmsg(ptr noundef nonnull @.str.4) #9
  %17 = call i32 (ptr, ...) @errhint(ptr noundef nonnull @.str.5) #9
  call void @errfinish(ptr noundef nonnull @.str.1, i32 noundef 142, ptr noundef nonnull @__func__.pg_backup_stop) #9
  unreachable

18:                                               ; preds = %12
  %19 = icmp ne i64 %6, 0
  %20 = load ptr, ptr @backup_state, align 8
  call void @do_pg_backup_stop(ptr noundef %20, i1 noundef zeroext %19) #9
  %21 = load ptr, ptr @backup_state, align 8
  %22 = call ptr @build_backup_content(ptr noundef %21, i1 noundef zeroext false) #9
  %23 = load ptr, ptr @backup_state, align 8
  %24 = getelementptr inbounds nuw i8, ptr %23, i64 1088
  %25 = load i64, ptr %24, align 8
  store i64 %25, ptr %3, align 16
  %26 = call ptr @cstring_to_text(ptr noundef %22) #9
  %27 = ptrtoint ptr %26 to i64
  %28 = getelementptr inbounds nuw i8, ptr %3, i64 8
  store i64 %27, ptr %28, align 8
  %29 = load ptr, ptr @tablespace_map, align 8
  %30 = load ptr, ptr %29, align 8
  %31 = call ptr @cstring_to_text(ptr noundef %30) #9
  %32 = ptrtoint ptr %31 to i64
  %33 = getelementptr inbounds nuw i8, ptr %3, i64 16
  store i64 %32, ptr %33, align 16
  call void @pfree(ptr noundef %22) #9
  store ptr null, ptr @backup_state, align 8
  store ptr null, ptr @tablespace_map, align 8
  %34 = load ptr, ptr @backupcontext, align 8
  call void @MemoryContextDelete(ptr noundef %34) #9
  store ptr null, ptr @backupcontext, align 8
  %35 = load ptr, ptr %2, align 8
  %36 = call ptr @heap_form_tuple(ptr noundef %35, ptr noundef nonnull %3, ptr noundef nonnull %4) #9
  %37 = getelementptr i8, ptr %36, i64 16
  %.val = load ptr, ptr %37, align 8
  %38 = call i64 @HeapTupleHeaderGetDatum(ptr noundef %.val) #9
  call void @llvm.lifetime.end.p0(i64 3, ptr nonnull %4) #9
  call void @llvm.lifetime.end.p0(i64 24, ptr nonnull %3) #9
  call void @llvm.lifetime.end.p0(i64 8, ptr nonnull %2) #9
  ret i64 %38
}